; Function Attrs: nounwind uwtable
define internal fastcc ptr @transformAExprOpAll(ptr noundef %0, ptr noundef nonnull readonly captures(none) %1) unnamed_addr #0 {
  %3 = getelementptr inbounds nuw i8, ptr %1, i64 16
  %4 = load ptr, ptr %3, align 8
  %5 = tail call fastcc ptr @transformExprRecurse(ptr noundef %0, ptr noundef %4)
  %6 = getelementptr inbounds nuw i8, ptr %1, i64 24
  %7 = load ptr, ptr %6, align 8
  %8 = tail call fastcc ptr @transformExprRecurse(ptr noundef %0, ptr noundef %7)
  %9 = getelementptr inbounds nuw i8, ptr %1, i64 8
  %10 = load ptr, ptr %9, align 8
  %11 = getelementptr inbounds nuw i8, ptr %1, i64 32
  %12 = load i32, ptr %11, align 8
  %13 = tail call ptr @make_scalar_array_op(ptr noundef %0, ptr noundef %10, i1 noundef zeroext false, ptr noundef %5, ptr noundef %8, i32 noundef %12) #9
  ret ptr %13
}